; Function Attrs: mustprogress uwtable
define noundef ptr @_ZNK6icu_776number4impl32LocalizedNumberFormatterAsFormat5cloneEv(ptr noundef nonnull align 8 dereferenceable(744) %0) unnamed_addr #1 align 2 personality ptr @__gxx_personality_v0 {
  %2 = tail call noundef ptr @_ZN6icu_777UMemorynwEm(i64 noundef 744) #15
  %3 = icmp eq ptr %2, null
  br i1 %3, label %_ZN6icu_776number4impl32LocalizedNumberFormatterAsFormatC2ERKS2_.exit, label %4

4:                                                ; preds = %1
  invoke void @_ZN6icu_776FormatC2ERKS0_(ptr noundef nonnull align 8 dereferenceable(744) %2, ptr noundef nonnull align 8 dereferenceable(744) %0)
          to label %.noexc unwind label %15

.noexc:                                           ; preds = %4
  store ptr getelementptr inbounds nuw inrange(-16, 64) (i8, ptr @_ZTVN6icu_776number4impl32LocalizedNumberFormatterAsFormatE, i64 16), ptr %2, align 8, !tbaa !15
  %5 = getelementptr inbounds nuw i8, ptr %2, i64 24
  %6 = getelementptr inbounds nuw i8, ptr %0, i64 24
  invoke void @_ZN6icu_776number24LocalizedNumberFormatterC1ERKS1_(ptr noundef nonnull align 8 dereferenceable(496) %5, ptr noundef nonnull align 8 dereferenceable(496) %6)
          to label %7 unwind label %10

7:                                                ; preds = %.noexc
  %8 = getelementptr inbounds nuw i8, ptr %2, i64 520
  %9 = getelementptr inbounds nuw i8, ptr %0, i64 520
  invoke void @_ZN6icu_776LocaleC1ERKS0_(ptr noundef nonnull align 8 dereferenceable(217) %8, ptr noundef nonnull align 8 dereferenceable(217) %9)
          to label %_ZN6icu_776number4impl32LocalizedNumberFormatterAsFormatC2ERKS2_.exit unwind label %12

10:                                               ; preds = %.noexc
  %11 = landingpad { ptr, i32 }
          cleanup
  br label %14

12:                                               ; preds = %7
  %13 = landingpad { ptr, i32 }
          cleanup
  tail call void @_ZN6icu_776number24LocalizedNumberFormatterD1Ev(ptr noundef nonnull align 8 dereferenceable(496) %5) #15
  br label %14

14:                                               ; preds = %12, %10
  %.pn.i = phi { ptr, i32 } [ %13, %12 ], [ %11, %10 ]
  tail call void @_ZN6icu_776FormatD2Ev(ptr noundef nonnull align 8 dereferenceable(744) %2) #15
  br label %.body

_ZN6icu_776number4impl32LocalizedNumberFormatterAsFormatC2ERKS2_.exit: ; preds = %7, %1
  ret ptr %2

15:                                               ; preds = %4
  %16 = landingpad { ptr, i32 }
          cleanup
  br label %.body

.body:                                            ; preds = %14, %15
  %eh.lpad-body = phi { ptr, i32 } [ %16, %15 ], [ %.pn.i, %14 ]
  tail call void @_ZN6icu_777UMemorydlEPv(ptr noundef nonnull %2) #15
  resume { ptr, i32 } %eh.lpad-body
}